target datalayout = "e-m:e-p270:32:32-p271:32:32-p272:64:64-i64:64-i128:128-f80:128-n8:16:32:64-S128"
target triple = "x86_64-unknown-linux-gnu"

; Function Attrs: mustprogress uwtable
define noundef double @_ZNK8QuantLib17LiborForwardModel12discountBondEddNS_5ArrayE(ptr noundef nonnull align 8 dereferenceable(184) %this, double noundef %0, double noundef %maturity, ptr noundef %1) unnamed_addr #2 align 2 {
entry:
  %this.addr = alloca ptr, align 8
  %.addr = alloca double, align 8
  %maturity.addr = alloca double, align 8
  %.indirect_addr = alloca ptr, align 8
  store ptr %this, ptr %this.addr, align 8, !tbaa !3
  store double %0, ptr %.addr, align 8, !tbaa !16
  store double %maturity, ptr %maturity.addr, align 8, !tbaa !16
  store ptr %1, ptr %.indirect_addr, align 8, !tbaa !3
  %this1 = load ptr, ptr %this.addr, align 8
  %2 = load double, ptr %maturity.addr, align 8, !tbaa !16
  %vtable = load ptr, ptr %this1, align 8, !tbaa !12
  %vfn = getelementptr inbounds ptr, ptr %vtable, i64 7
  %3 = load ptr, ptr %vfn, align 8
  %call = call noundef double %3(ptr noundef nonnull align 8 dereferenceable(184) %this1, double noundef %2)
  ret double %call
}

; Function Attrs: uwtable
define noundef double @_ZThn80_NK8QuantLib17LiborForwardModel12discountBondEddNS_5ArrayE(ptr noundef %this, double noundef %0, double noundef %maturity, ptr noundef %1) unnamed_addr #7 align 2 {
entry:
  %this.addr = alloca ptr, align 8
  %.addr = alloca double, align 8
  %maturity.addr = alloca double, align 8
  %.indirect_addr = alloca ptr, align 8
  store ptr %this, ptr %this.addr, align 8, !tbaa !3
  store double %0, ptr %.addr, align 8, !tbaa !16
  store double %maturity, ptr %maturity.addr, align 8, !tbaa !16
  store ptr %1, ptr %.indirect_addr, align 8, !tbaa !3
  %this1 = load ptr, ptr %this.addr, align 8
  %2 = getelementptr inbounds i8, ptr %this1, i64 -80
  %3 = load double, ptr %.addr, align 8, !tbaa !16
  %4 = load double, ptr %maturity.addr, align 8, !tbaa !16
  %call = tail call noundef double @_ZNK8QuantLib17LiborForwardModel12discountBondEddNS_5ArrayE(ptr noundef nonnull align 8 dereferenceable(184) %2, double noundef %3, double noundef %4, ptr noundef %1)
  ret double %call
}