; Function Attrs: uwtable
define noundef double @_ZThn80_NK8QuantLib17LiborForwardModel12discountBondEddNS_5ArrayE(ptr noundef %this, double %0, double noundef %maturity, ptr nocapture readnone %1) unnamed_addr #15 align 2 {
entry:
  %2 = getelementptr inbounds i8, ptr %this, i64 -80
  %vtable.i = load ptr, ptr %2, align 8, !tbaa !35
  %vfn.i = getelementptr inbounds i8, ptr %vtable.i, i64 56
  %3 = load ptr, ptr %vfn.i, align 8
  %call.i = tail call noundef double %3(ptr noundef nonnull align 8 dereferenceable(184) %2, double noundef %maturity)
  ret double %call.i
}